; Function Attrs: nofree nounwind uwtable
define noundef ptr @Mtr_CreateLastChild(ptr noundef %0) local_unnamed_addr #9 {
  %2 = tail call noalias noundef dereferenceable_or_null(48) ptr @malloc(i64 noundef 48) #12
  %3 = icmp eq ptr %2, null
  br i1 %3, label %16, label %4

4:                                                ; preds = %1
  %5 = getelementptr inbounds nuw i8, ptr %2, i64 32
  %6 = getelementptr inbounds nuw i8, ptr %2, i64 24
  store i32 0, ptr %2, align 8, !tbaa !3
  %7 = getelementptr inbounds nuw i8, ptr %0, i64 24
  tail call void @llvm.memset.p0.i64(ptr noundef nonnull align 8 dereferenceable(24) %6, i8 0, i64 24, i1 false)
  %8 = load ptr, ptr %7, align 8, !tbaa !10
  %9 = icmp eq ptr %8, null
  br i1 %9, label %10, label %.preheader.i

10:                                               ; preds = %4
  store ptr %2, ptr %7, align 8, !tbaa !10
  br label %Mtr_MakeLastChild.exit

.preheader.i:                                     ; preds = %4, %.preheader.i
  %.0.i = phi ptr [ %12, %.preheader.i ], [ %8, %4 ]
  %11 = getelementptr inbounds nuw i8, ptr %.0.i, i64 40
  %12 = load ptr, ptr %11, align 8, !tbaa !11
  %.not.i = icmp eq ptr %12, null
  br i1 %.not.i, label %13, label %.preheader.i, !llvm.loop !19

13:                                               ; preds = %.preheader.i
  %14 = getelementptr inbounds nuw i8, ptr %.0.i, i64 40
  store ptr %2, ptr %14, align 8, !tbaa !11
  br label %Mtr_MakeLastChild.exit

Mtr_MakeLastChild.exit:                           ; preds = %10, %13
  %.0.lcssa17.sink.i = phi ptr [ %.0.i, %13 ], [ null, %10 ]
  store ptr %.0.lcssa17.sink.i, ptr %5, align 8, !tbaa !15
  %15 = getelementptr inbounds nuw i8, ptr %2, i64 16
  store ptr %0, ptr %15, align 8, !tbaa !16
  br label %16

16:                                               ; preds = %1, %Mtr_MakeLastChild.exit
  ret ptr %2
}